target datalayout = "e-m:e-p270:32:32-p271:32:32-p272:64:64-i64:64-i128:128-f80:128-n8:16:32:64-S128"
target triple = "x86_64-pc-linux-gnu"

%"struct.duckdb_zstd::ZSTD_matchState_t" = type { %"struct.duckdb_zstd::ZSTD_window_t", i32, i32, i32, i32, ptr, [8 x i32], i64, i32, ptr, ptr, ptr, i32, i32, %"struct.duckdb_zstd::optState_t", ptr, %"struct.duckdb_zstd::ZSTD_compressionParameters", ptr, i32, i32 }
%"struct.duckdb_zstd::ZSTD_window_t" = type { ptr, ptr, ptr, i32, i32, i32 }
%"struct.duckdb_zstd::optState_t" = type { ptr, ptr, ptr, ptr, ptr, ptr, i32, i32, i32, i32, i32, i32, i32, i32, i32, ptr, i32 }
%"struct.duckdb_zstd::ZSTD_compressionParameters" = type { i32, i32, i32, i32, i32, i32, i32 }
%"struct.duckdb_zstd::seqStore_t" = type { ptr, ptr, ptr, ptr, ptr, ptr, ptr, i64, i64, i32, i32 }

; Function Attrs: mustprogress uwtable
define internal void @_ZN11duckdb_zstdL20ZSTD_initStats_ultraEPNS_17ZSTD_matchState_tEPNS_10seqStore_tEPjPKvm(ptr noundef %0, ptr noundef %1, ptr noundef %2, ptr noundef %3, i64 noundef %4) #0 {
  %6 = alloca ptr, align 8
  %7 = alloca ptr, align 8
  %8 = alloca ptr, align 8
  %9 = alloca ptr, align 8
  %10 = alloca i64, align 8
  %11 = alloca [3 x i32], align 4
  store ptr %0, ptr %6, align 8, !tbaa !3
  store ptr %1, ptr %7, align 8, !tbaa !28
  store ptr %2, ptr %8, align 8, !tbaa !29
  store ptr %3, ptr %9, align 8, !tbaa !28
  store i64 %4, ptr %10, align 8, !tbaa !30
  call void @llvm.lifetime.start.p0(i64 12, ptr %11) #13
  %12 = getelementptr inbounds [3 x i32], ptr %11, i64 0, i64 0
  %13 = load ptr, ptr %8, align 8, !tbaa !29
  call void @llvm.memcpy.p0.p0.i64(ptr align 4 %12, ptr align 4 %13, i64 12, i1 false)
  br label %14

14:                                               ; preds = %5
  br label %15

15:                                               ; preds = %14
  br label %16

16:                                               ; preds = %15
  %17 = load ptr, ptr %6, align 8, !tbaa !3
  %18 = load ptr, ptr %7, align 8, !tbaa !28
  %19 = getelementptr inbounds [3 x i32], ptr %11, i64 0, i64 0
  %20 = load ptr, ptr %9, align 8, !tbaa !28
  %21 = load i64, ptr %10, align 8, !tbaa !30
  %22 = call noundef i64 @_ZN11duckdb_zstdL23ZSTD_compressBlock_opt2EPNS_17ZSTD_matchState_tEPNS_10seqStore_tEPjPKvmNS_15ZSTD_dictMode_eE(ptr noundef %17, ptr noundef %18, ptr noundef %19, ptr noundef %20, i64 noundef %21, i32 noundef 0)
  %23 = load ptr, ptr %7, align 8, !tbaa !28
  call void @_ZN11duckdb_zstd18ZSTD_resetSeqStoreEPNS_10seqStore_tE(ptr noundef %23)
  %24 = load i64, ptr %10, align 8, !tbaa !30
  %25 = load ptr, ptr %6, align 8, !tbaa !3
  %26 = getelementptr inbounds nuw %"struct.duckdb_zstd::ZSTD_matchState_t", ptr %25, i32 0, i32 0
  %27 = getelementptr inbounds nuw %"struct.duckdb_zstd::ZSTD_window_t", ptr %26, i32 0, i32 1
  %28 = load ptr, ptr %27, align 8, !tbaa !24
  %29 = sub i64 0, %24
  %30 = getelementptr inbounds i8, ptr %28, i64 %29
  store ptr %30, ptr %27, align 8, !tbaa !24
  %31 = load i64, ptr %10, align 8, !tbaa !30
  %32 = trunc i64 %31 to i32
  %33 = load ptr, ptr %6, align 8, !tbaa !3
  %34 = getelementptr inbounds nuw %"struct.duckdb_zstd::ZSTD_matchState_t", ptr %33, i32 0, i32 0
  %35 = getelementptr inbounds nuw %"struct.duckdb_zstd::ZSTD_window_t", ptr %34, i32 0, i32 3
  %36 = load i32, ptr %35, align 8, !tbaa !37
  %37 = add i32 %36, %32
  store i32 %37, ptr %35, align 8, !tbaa !37
  %38 = load ptr, ptr %6, align 8, !tbaa !3
  %39 = getelementptr inbounds nuw %"struct.duckdb_zstd::ZSTD_matchState_t", ptr %38, i32 0, i32 0
  %40 = getelementptr inbounds nuw %"struct.duckdb_zstd::ZSTD_window_t", ptr %39, i32 0, i32 3
  %41 = load i32, ptr %40, align 8, !tbaa !37
  %42 = load ptr, ptr %6, align 8, !tbaa !3
  %43 = getelementptr inbounds nuw %"struct.duckdb_zstd::ZSTD_matchState_t", ptr %42, i32 0, i32 0
  %44 = getelementptr inbounds nuw %"struct.duckdb_zstd::ZSTD_window_t", ptr %43, i32 0, i32 4
  store i32 %41, ptr %44, align 4, !tbaa !38
  %45 = load ptr, ptr %6, align 8, !tbaa !3
  %46 = getelementptr inbounds nuw %"struct.duckdb_zstd::ZSTD_matchState_t", ptr %45, i32 0, i32 0
  %47 = getelementptr inbounds nuw %"struct.duckdb_zstd::ZSTD_window_t", ptr %46, i32 0, i32 3
  %48 = load i32, ptr %47, align 8, !tbaa !37
  %49 = load ptr, ptr %6, align 8, !tbaa !3
  %50 = getelementptr inbounds nuw %"struct.duckdb_zstd::ZSTD_matchState_t", ptr %49, i32 0, i32 2
  store i32 %48, ptr %50, align 4, !tbaa !25
  call void @llvm.lifetime.end.p0(i64 12, ptr %11) #13
  ret void
}

; Function Attrs: mustprogress uwtable
define noundef i64 @_ZN11duckdb_zstd27ZSTD_compressBlock_btultra2EPNS_17ZSTD_matchState_tEPNS_10seqStore_tEPjPKvm(ptr noundef %0, ptr noundef %1, ptr noundef %2, ptr noundef %3, i64 noundef %4) #0 {
  %6 = alloca ptr, align 8
  %7 = alloca ptr, align 8
  %8 = alloca ptr, align 8
  %9 = alloca ptr, align 8
  %10 = alloca i64, align 8
  %11 = alloca i32, align 4
  store ptr %0, ptr %6, align 8, !tbaa !3
  store ptr %1, ptr %7, align 8, !tbaa !28
  store ptr %2, ptr %8, align 8, !tbaa !29
  store ptr %3, ptr %9, align 8, !tbaa !28
  store i64 %4, ptr %10, align 8, !tbaa !30
  call void @llvm.lifetime.start.p0(i64 4, ptr %11) #13
  %12 = load ptr, ptr %9, align 8, !tbaa !28
  %13 = load ptr, ptr %6, align 8, !tbaa !3
  %14 = getelementptr inbounds nuw %"struct.duckdb_zstd::ZSTD_matchState_t", ptr %13, i32 0, i32 0
  %15 = getelementptr inbounds nuw %"struct.duckdb_zstd::ZSTD_window_t", ptr %14, i32 0, i32 1
  %16 = load ptr, ptr %15, align 8, !tbaa !24
  %17 = ptrtoint ptr %12 to i64
  %18 = ptrtoint ptr %16 to i64
  %19 = sub i64 %17, %18
  %20 = trunc i64 %19 to i32
  store i32 %20, ptr %11, align 4, !tbaa !21
  br label %21

21:                                               ; preds = %5
  br label %22

22:                                               ; preds = %21
  br label %23

23:                                               ; preds = %22
  %24 = load ptr, ptr %6, align 8, !tbaa !3
  %25 = getelementptr inbounds nuw %"struct.duckdb_zstd::ZSTD_matchState_t", ptr %24, i32 0, i32 14
  %26 = getelementptr inbounds nuw %"struct.duckdb_zstd::optState_t", ptr %25, i32 0, i32 7
  %27 = load i32, ptr %26, align 4, !tbaa !31
  %28 = icmp eq i32 %27, 0
  br i1 %28, label %29, label %63

29:                                               ; preds = %23
  %30 = load ptr, ptr %7, align 8, !tbaa !28
  %31 = getelementptr inbounds nuw %"struct.duckdb_zstd::seqStore_t", ptr %30, i32 0, i32 1
  %32 = load ptr, ptr %31, align 8, !tbaa !32
  %33 = load ptr, ptr %7, align 8, !tbaa !28
  %34 = getelementptr inbounds nuw %"struct.duckdb_zstd::seqStore_t", ptr %33, i32 0, i32 0
  %35 = load ptr, ptr %34, align 8, !tbaa !36
  %36 = icmp eq ptr %32, %35
  br i1 %36, label %37, label %63

37:                                               ; preds = %29
  %38 = load ptr, ptr %6, align 8, !tbaa !3
  %39 = getelementptr inbounds nuw %"struct.duckdb_zstd::ZSTD_matchState_t", ptr %38, i32 0, i32 0
  %40 = getelementptr inbounds nuw %"struct.duckdb_zstd::ZSTD_window_t", ptr %39, i32 0, i32 3
  %41 = load i32, ptr %40, align 8, !tbaa !37
  %42 = load ptr, ptr %6, align 8, !tbaa !3
  %43 = getelementptr inbounds nuw %"struct.duckdb_zstd::ZSTD_matchState_t", ptr %42, i32 0, i32 0
  %44 = getelementptr inbounds nuw %"struct.duckdb_zstd::ZSTD_window_t", ptr %43, i32 0, i32 4
  %45 = load i32, ptr %44, align 4, !tbaa !38
  %46 = icmp eq i32 %41, %45
  br i1 %46, label %47, label %63

47:                                               ; preds = %37
  %48 = load i32, ptr %11, align 4, !tbaa !21
  %49 = load ptr, ptr %6, align 8, !tbaa !3
  %50 = getelementptr inbounds nuw %"struct.duckdb_zstd::ZSTD_matchState_t", ptr %49, i32 0, i32 0
  %51 = getelementptr inbounds nuw %"struct.duckdb_zstd::ZSTD_window_t", ptr %50, i32 0, i32 3
  %52 = load i32, ptr %51, align 8, !tbaa !37
  %53 = icmp eq i32 %48, %52
  br i1 %53, label %54, label %63

54:                                               ; preds = %47
  %55 = load i64, ptr %10, align 8, !tbaa !30
  %56 = icmp ugt i64 %55, 8
  br i1 %56, label %57, label %63

57:                                               ; preds = %54
  %58 = load ptr, ptr %6, align 8, !tbaa !3
  %59 = load ptr, ptr %7, align 8, !tbaa !28
  %60 = load ptr, ptr %8, align 8, !tbaa !29
  %61 = load ptr, ptr %9, align 8, !tbaa !28
  %62 = load i64, ptr %10, align 8, !tbaa !30
  call void @_ZN11duckdb_zstdL20ZSTD_initStats_ultraEPNS_17ZSTD_matchState_tEPNS_10seqStore_tEPjPKvm(ptr noundef %58, ptr noundef %59, ptr noundef %60, ptr noundef %61, i64 noundef %62)
  br label %63

63:                                               ; preds = %57, %54, %47, %37, %29, %23
  %64 = load ptr, ptr %6, align 8, !tbaa !3
  %65 = load ptr, ptr %7, align 8, !tbaa !28
  %66 = load ptr, ptr %8, align 8, !tbaa !29
  %67 = load ptr, ptr %9, align 8, !tbaa !28
  %68 = load i64, ptr %10, align 8, !tbaa !30
  %69 = call noundef i64 @_ZN11duckdb_zstdL23ZSTD_compressBlock_opt2EPNS_17ZSTD_matchState_tEPNS_10seqStore_tEPjPKvmNS_15ZSTD_dictMode_eE(ptr noundef %64, ptr noundef %65, ptr noundef %66, ptr noundef %67, i64 noundef %68, i32 noundef 0)
  call void @llvm.lifetime.end.p0(i64 4, ptr %11) #13
  ret i64 %69
}